
SchedTest.elf:     file format elf32-msp430

SYMBOL TABLE:
00004000 l    d  .text	00000000 .text
00001100 l    d  .bss	00000000 .bss
0000ffe0 l    d  .vectors	00000000 .vectors
00000000 l    d  .stab	00000000 .stab
00000000 l    d  .stabstr	00000000 .stabstr
00000000 l    d  .debug_aranges	00000000 .debug_aranges
00000000 l    d  .debug_pubnames	00000000 .debug_pubnames
00000000 l    d  .debug_info	00000000 .debug_info
00000000 l    d  .debug_abbrev	00000000 .debug_abbrev
00000000 l    d  .debug_line	00000000 .debug_line
00000000 l    d  .debug_frame	00000000 .debug_frame
00000000 l    d  .debug_str	00000000 .debug_str
00000000 l    d  .debug_loc	00000000 .debug_loc
00004746 l    d  .debug_ranges	00000000 .debug_ranges
00000130 l       *ABS*	00000000 MPY
00000132 l       *ABS*	00000000 MPYS
00000134 l       *ABS*	00000000 MAC
00000136 l       *ABS*	00000000 MACS
00000138 l       *ABS*	00000000 OP2
0000013a l       *ABS*	00000000 RESLO
0000013c l       *ABS*	00000000 RESHI
0000013e l       *ABS*	00000000 SUMEXT
00000020 l       *ABS*	00000000 P1IN
00000021 l       *ABS*	00000000 P1OUT
00000022 l       *ABS*	00000000 P1DIR
00000023 l       *ABS*	00000000 P1IFG
00000024 l       *ABS*	00000000 P1IES
00000025 l       *ABS*	00000000 P1IE
00000026 l       *ABS*	00000000 P1SEL
00000028 l       *ABS*	00000000 P2IN
00000029 l       *ABS*	00000000 P2OUT
0000002a l       *ABS*	00000000 P2DIR
0000002b l       *ABS*	00000000 P2IFG
0000002c l       *ABS*	00000000 P2IES
0000002d l       *ABS*	00000000 P2IE
0000002e l       *ABS*	00000000 P2SEL
00000018 l       *ABS*	00000000 P3IN
00000019 l       *ABS*	00000000 P3OUT
0000001a l       *ABS*	00000000 P3DIR
0000001b l       *ABS*	00000000 P3SEL
0000001c l       *ABS*	00000000 P4IN
0000001d l       *ABS*	00000000 P4OUT
0000001e l       *ABS*	00000000 P4DIR
0000001f l       *ABS*	00000000 P4SEL
00000030 l       *ABS*	00000000 P5IN
00000031 l       *ABS*	00000000 P5OUT
00000032 l       *ABS*	00000000 P5DIR
00000033 l       *ABS*	00000000 P5SEL
00000034 l       *ABS*	00000000 P6IN
00000035 l       *ABS*	00000000 P6OUT
00000036 l       *ABS*	00000000 P6DIR
00000037 l       *ABS*	00000000 P6SEL
00000070 l       *ABS*	00000000 U0CTL
00000071 l       *ABS*	00000000 U0TCTL
00000072 l       *ABS*	00000000 U0RCTL
00000073 l       *ABS*	00000000 U0MCTL
00000074 l       *ABS*	00000000 U0BR0
00000075 l       *ABS*	00000000 U0BR1
00000076 l       *ABS*	00000000 U0RXBUF
00000077 l       *ABS*	00000000 U0TXBUF
00000070 l       *ABS*	00000000 UCTL
00000071 l       *ABS*	00000000 UTCTL
00000072 l       *ABS*	00000000 URCTL
00000073 l       *ABS*	00000000 UMCTL
00000074 l       *ABS*	00000000 UBR0
00000075 l       *ABS*	00000000 UBR1
00000076 l       *ABS*	00000000 RXBUF
00000077 l       *ABS*	00000000 TXBUF
00000070 l       *ABS*	00000000 UCTL0
00000071 l       *ABS*	00000000 UTCTL0
00000072 l       *ABS*	00000000 URCTL0
00000073 l       *ABS*	00000000 UMCTL0
00000074 l       *ABS*	00000000 UBR00
00000075 l       *ABS*	00000000 UBR10
00000076 l       *ABS*	00000000 RXBUF0
00000077 l       *ABS*	00000000 TXBUF0
00000070 l       *ABS*	00000000 UCTL_0
00000071 l       *ABS*	00000000 UTCTL_0
00000072 l       *ABS*	00000000 URCTL_0
00000073 l       *ABS*	00000000 UMCTL_0
00000074 l       *ABS*	00000000 UBR0_0
00000075 l       *ABS*	00000000 UBR1_0
00000076 l       *ABS*	00000000 RXBUF_0
00000077 l       *ABS*	00000000 TXBUF_0
00000050 l       *ABS*	00000000 I2CIE
00000051 l       *ABS*	00000000 I2CIFG
00000052 l       *ABS*	00000000 I2CNDAT
00000071 l       *ABS*	00000000 I2CTCTL
00000072 l       *ABS*	00000000 I2CDCTL
00000073 l       *ABS*	00000000 I2CPSC
00000074 l       *ABS*	00000000 I2CSCLH
00000075 l       *ABS*	00000000 I2CSCLL
00000076 l       *ABS*	00000000 I2CDRB
00000076 l       *ABS*	00000000 I2CDRW
00000118 l       *ABS*	00000000 I2COA
0000011a l       *ABS*	00000000 I2CSA
0000011c l       *ABS*	00000000 I2CIV
00000076 l       *ABS*	00000000 I2CDR
00000078 l       *ABS*	00000000 U1CTL
00000079 l       *ABS*	00000000 U1TCTL
0000007a l       *ABS*	00000000 U1RCTL
0000007b l       *ABS*	00000000 U1MCTL
0000007c l       *ABS*	00000000 U1BR0
0000007d l       *ABS*	00000000 U1BR1
0000007e l       *ABS*	00000000 U1RXBUF
0000007f l       *ABS*	00000000 U1TXBUF
00000078 l       *ABS*	00000000 UCTL1
00000079 l       *ABS*	00000000 UTCTL1
0000007a l       *ABS*	00000000 URCTL1
0000007b l       *ABS*	00000000 UMCTL1
0000007c l       *ABS*	00000000 UBR01
0000007d l       *ABS*	00000000 UBR11
0000007e l       *ABS*	00000000 RXBUF1
0000007f l       *ABS*	00000000 TXBUF1
00000078 l       *ABS*	00000000 UCTL_1
00000079 l       *ABS*	00000000 UTCTL_1
0000007a l       *ABS*	00000000 URCTL_1
0000007b l       *ABS*	00000000 UMCTL_1
0000007c l       *ABS*	00000000 UBR0_1
0000007d l       *ABS*	00000000 UBR1_1
0000007e l       *ABS*	00000000 RXBUF_1
0000007f l       *ABS*	00000000 TXBUF_1
00000055 l       *ABS*	00000000 SVSCTL
00000128 l       *ABS*	00000000 FCTL1
0000012a l       *ABS*	00000000 FCTL2
0000012c l       *ABS*	00000000 FCTL3
00000059 l       *ABS*	00000000 CACTL1
0000005a l       *ABS*	00000000 CACTL2
0000005b l       *ABS*	00000000 CAPD
0000012e l       *ABS*	00000000 TA0IV
00000160 l       *ABS*	00000000 TA0CTL
00000170 l       *ABS*	00000000 TA0R
00000162 l       *ABS*	00000000 TA0CCTL0
00000164 l       *ABS*	00000000 TA0CCTL1
00000172 l       *ABS*	00000000 TA0CCR0
00000174 l       *ABS*	00000000 TA0CCR1
00000166 l       *ABS*	00000000 TA0CCTL2
00000176 l       *ABS*	00000000 TA0CCR2
0000011e l       *ABS*	00000000 TBIV
00000180 l       *ABS*	00000000 TBCTL
00000190 l       *ABS*	00000000 TBR
00000182 l       *ABS*	00000000 TBCCTL0
00000184 l       *ABS*	00000000 TBCCTL1
00000186 l       *ABS*	00000000 TBCCTL2
00000192 l       *ABS*	00000000 TBCCR0
00000194 l       *ABS*	00000000 TBCCR1
00000196 l       *ABS*	00000000 TBCCR2
00000188 l       *ABS*	00000000 TBCCTL3
0000018a l       *ABS*	00000000 TBCCTL4
0000018c l       *ABS*	00000000 TBCCTL5
0000018e l       *ABS*	00000000 TBCCTL6
00000198 l       *ABS*	00000000 TBCCR3
0000019a l       *ABS*	00000000 TBCCR4
0000019c l       *ABS*	00000000 TBCCR5
0000019e l       *ABS*	00000000 TBCCR6
00000056 l       *ABS*	00000000 DCOCTL
00000057 l       *ABS*	00000000 BCSCTL1
00000058 l       *ABS*	00000000 BCSCTL2
000001a0 l       *ABS*	00000000 ADC12CTL0
000001a2 l       *ABS*	00000000 ADC12CTL1
000001a4 l       *ABS*	00000000 ADC12IFG
000001a6 l       *ABS*	00000000 ADC12IE
000001a8 l       *ABS*	00000000 ADC12IV
00000140 l       *ABS*	00000000 ADC12MEM0
00000142 l       *ABS*	00000000 ADC12MEM1
00000144 l       *ABS*	00000000 ADC12MEM2
00000146 l       *ABS*	00000000 ADC12MEM3
00000148 l       *ABS*	00000000 ADC12MEM4
0000014a l       *ABS*	00000000 ADC12MEM5
0000014c l       *ABS*	00000000 ADC12MEM6
0000014e l       *ABS*	00000000 ADC12MEM7
00000150 l       *ABS*	00000000 ADC12MEM8
00000152 l       *ABS*	00000000 ADC12MEM9
00000154 l       *ABS*	00000000 ADC12MEM10
00000156 l       *ABS*	00000000 ADC12MEM11
00000158 l       *ABS*	00000000 ADC12MEM12
0000015a l       *ABS*	00000000 ADC12MEM13
0000015c l       *ABS*	00000000 ADC12MEM14
0000015e l       *ABS*	00000000 ADC12MEM15
00000080 l       *ABS*	00000000 ADC12MCTL0
00000081 l       *ABS*	00000000 ADC12MCTL1
00000082 l       *ABS*	00000000 ADC12MCTL2
00000083 l       *ABS*	00000000 ADC12MCTL3
00000084 l       *ABS*	00000000 ADC12MCTL4
00000085 l       *ABS*	00000000 ADC12MCTL5
00000086 l       *ABS*	00000000 ADC12MCTL6
00000087 l       *ABS*	00000000 ADC12MCTL7
00000088 l       *ABS*	00000000 ADC12MCTL8
00000089 l       *ABS*	00000000 ADC12MCTL9
0000008a l       *ABS*	00000000 ADC12MCTL10
0000008b l       *ABS*	00000000 ADC12MCTL11
0000008c l       *ABS*	00000000 ADC12MCTL12
0000008d l       *ABS*	00000000 ADC12MCTL13
0000008e l       *ABS*	00000000 ADC12MCTL14
0000008f l       *ABS*	00000000 ADC12MCTL15
000001c0 l       *ABS*	00000000 DAC12_0CTL
000001c2 l       *ABS*	00000000 DAC12_1CTL
000001c8 l       *ABS*	00000000 DAC12_0DAT
000001ca l       *ABS*	00000000 DAC12_1DAT
00000122 l       *ABS*	00000000 DMACTL0
00000124 l       *ABS*	00000000 DMACTL1
000001e0 l       *ABS*	00000000 DMA0CTL
000001e2 l       *ABS*	00000000 DMA0SA
000001e4 l       *ABS*	00000000 DMA0DA
000001e6 l       *ABS*	00000000 DMA0SZ
000001e8 l       *ABS*	00000000 DMA1CTL
000001ea l       *ABS*	00000000 DMA1SA
000001ec l       *ABS*	00000000 DMA1DA
000001ee l       *ABS*	00000000 DMA1SZ
000001f0 l       *ABS*	00000000 DMA2CTL
000001f2 l       *ABS*	00000000 DMA2SA
000001f4 l       *ABS*	00000000 DMA2DA
000001f6 l       *ABS*	00000000 DMA2SZ
00000120 l       *ABS*	00000000 WDTCTL
00000000 l       *ABS*	00000000 IE1
00000002 l       *ABS*	00000000 IFG1
00000001 l       *ABS*	00000000 IE2
00000003 l       *ABS*	00000000 IFG2
00000004 l       *ABS*	00000000 ME1
00000005 l       *ABS*	00000000 ME2
00000000 l    df *ABS*	00000000 SchedTest.c
00000130 l       *ABS*	00000000 __MPY
00000132 l       *ABS*	00000000 __MPYS
00000134 l       *ABS*	00000000 __MAC
00000136 l       *ABS*	00000000 __MACS
00000138 l       *ABS*	00000000 __OP2
0000013a l       *ABS*	00000000 __RESLO
0000013c l       *ABS*	00000000 __RESHI
0000013e l       *ABS*	00000000 __SUMEXT
00000000 l    df *ABS*	00000000 Led.c
00000130 l       *ABS*	00000000 __MPY
00000132 l       *ABS*	00000000 __MPYS
00000134 l       *ABS*	00000000 __MAC
00000136 l       *ABS*	00000000 __MACS
00000138 l       *ABS*	00000000 __OP2
0000013a l       *ABS*	00000000 __RESLO
0000013c l       *ABS*	00000000 __RESHI
0000013e l       *ABS*	00000000 __SUMEXT
00000000 l    df *ABS*	00000000 Clock.c
00000130 l       *ABS*	00000000 __MPY
00000132 l       *ABS*	00000000 __MPYS
00000134 l       *ABS*	00000000 __MAC
00000136 l       *ABS*	00000000 __MACS
00000138 l       *ABS*	00000000 __OP2
0000013a l       *ABS*	00000000 __RESLO
0000013c l       *ABS*	00000000 __RESHI
0000013e l       *ABS*	00000000 __SUMEXT
00000000 l    df *ABS*	00000000 Context.c
00000130 l       *ABS*	00000000 __MPY
00000132 l       *ABS*	00000000 __MPYS
00000134 l       *ABS*	00000000 __MAC
00000136 l       *ABS*	00000000 __MACS
00000138 l       *ABS*	00000000 __OP2
0000013a l       *ABS*	00000000 __RESLO
0000013c l       *ABS*	00000000 __RESHI
0000013e l       *ABS*	00000000 __SUMEXT
00001100 l     O .bss	00000001 CurrentContext
00001102 l     O .bss	00000003 Contexts
00000000 l    df *ABS*	00000000 SchedulerOnline.c
00000130 l       *ABS*	00000000 __MPY
00000132 l       *ABS*	00000000 __MPYS
00000134 l       *ABS*	00000000 __MAC
00000136 l       *ABS*	00000000 __MACS
00000138 l       *ABS*	00000000 __OP2
0000013a l       *ABS*	00000000 __RESLO
0000013c l       *ABS*	00000000 __RESHI
0000013e l       *ABS*	00000000 __SUMEXT
00000000 l    df *ABS*	00000000 Scheduler_P_FP.c
00000130 l       *ABS*	00000000 __MPY
00000132 l       *ABS*	00000000 __MPYS
00000134 l       *ABS*	00000000 __MAC
00000136 l       *ABS*	00000000 __MACS
00000138 l       *ABS*	00000000 __OP2
0000013a l       *ABS*	00000000 __RESLO
0000013c l       *ABS*	00000000 __RESHI
0000013e l       *ABS*	00000000 __SUMEXT
00000000 l    df *ABS*	00000000 Scheduler_P_EDF.c
00000130 l       *ABS*	00000000 __MPY
00000132 l       *ABS*	00000000 __MPYS
00000134 l       *ABS*	00000000 __MAC
00000136 l       *ABS*	00000000 __MACS
00000138 l       *ABS*	00000000 __OP2
0000013a l       *ABS*	00000000 __RESLO
0000013c l       *ABS*	00000000 __RESHI
0000013e l       *ABS*	00000000 __SUMEXT
00000000 l    df *ABS*	00000000 TimeTracking.c
00000130 l       *ABS*	00000000 __MPY
00000132 l       *ABS*	00000000 __MPYS
00000134 l       *ABS*	00000000 __MAC
00000136 l       *ABS*	00000000 __MACS
00000138 l       *ABS*	00000000 __OP2
0000013a l       *ABS*	00000000 __RESLO
0000013c l       *ABS*	00000000 __RESHI
0000013e l       *ABS*	00000000 __SUMEXT
00001106 l     O .bss	00000004 StartTimes
0000110a l     O .bss	00000004 Totals
0000110e l     O .bss	00000001 JobsExecuted
00000000 g       *ABS*	00000000 __data_size
00004242 g     F .text	0000008a RegisterTask
000041dc g     F .text	00000016 ResumeContext
000041ac g     F .text	00000018 InitClock
000046a0 g     F .text	0000000c StartTracking
000046f4 g       .text	00000000 __udivmodhi4
0000418c g     F .text	0000000a InitLeds
00004036 g     F .text	00000018 CountDelay
00004746 g       .text	00000000 _etext
0000004a g       *ABS*	00000000 __bss_size
000046c2 g     F .text	00000006 AddJobExecution
00004030 g       .text	00000000 _unexpected_1_
00004030  w      .text	00000000 vector_ffe0
00001110 g     O .bss	00000001 BusyPrio
0000442a g     F .text	0000006a Scheduler_P_FP
00004494 g     F .text	0000020c Scheduler_P_EDF
00004346 g       .text	00000000 vector_ffec
00004030  w      .text	00000000 vector_fff0
00004746 g       *ABS*	00000000 __data_load_start
00004030 g       .text	00000000 __dtors_end
00004030  w      .text	00000000 vector_fffc
00004150 g     F .text	0000003c BlinkYellow
00004030  w      .text	00000000 vector_ffe4
000041a6 g     F .text	00000006 ToggleLeds
00004196 g     F .text	00000010 SetLeds
0000ffe0 g     O .vectors	00000020 InterruptVectors
000042cc g     F .text	00000016 UnRegisterTask
00001111 g     O .bss	00000001 Pending
000041c4 g     F .text	00000018 ContextSwitch
00004114 g     F .text	0000003c BlinkGreen
0000401c  w      .text	00000000 __do_clear_bss
00004346 g     F .text	000000e4 TimerIntrpt
00004030  w      .text	00000000 vector_ffe2
00004030  w      .text	00000000 vector_ffe8
00004034  w      .text	00000000 _unexpected_
00004710 g       .text	00000000 __divmodhi4
00004030  w      .text	00000000 vector_fffa
00001112 g     O .bss	00000036 Tasks
00004000  w      .text	00000000 _reset_vector__
00004030 g       .text	00000000 __ctors_start
0000400a  w      .text	00000000 __do_copy_data
0000404e g     F .text	00000020 CountRealtimeDelay
00001100 g       .bss	00000000 __bss_start
00004030  w      .text	00000000 vector_ffee
00004030  w      .text	00000000 vector_fff4
0000406e g     F .text	0000006a main
00004030  w      .text	00000000 vector_fff8
000046c8 g     F .text	0000002c PrintResults
00004030  w      .text	00000000 vector_fff2
000040d8 g     F .text	0000003c BlinkRed
00010000 g       .vectors	00000000 _vectors_end
00004030  w      .text	00000000 vector_ffe6
000041f2 g     F .text	00000006 IntDisable
00001148 g     O .bss	00000002 NextInterruptTime
00004000  w      .text	00000000 __init_stack
00004302 g     F .text	00000044 lcm
00004030 g       .text	00000000 __dtors_start
00004030 g       .text	00000000 __ctors_end
00003900 g       *ABS*	00000000 __stack
00001100 g       .bss	00000000 _edata
0000114a g       .bss	00000000 _end
00004030  w      .text	00000000 vector_fff6
000042e2 g     F .text	00000020 gcd
00004004  w      .text	00000000 __low_level_init
0000402c  w      .text	00000000 __jump_to_main
000041fc g     F .text	00000046 InitTasks
00001100 g       .bss	00000000 __data_start
00004030  w      .text	00000000 vector_ffea
000046ac g     F .text	00000016 StopTracking
000041f8 g     F .text	00000004 RestoreSW



Disassembly of section .text:

00004000 <__init_stack>:
    4000:	31 40 00 39 	mov	#14592,	r1	;#0x3900

00004004 <__low_level_init>:
    4004:	b2 40 80 5a 	mov	#23168,	&0x0120	;#0x5a80
    4008:	20 01 

0000400a <__do_copy_data>:
    400a:	3f 40 00 00 	mov	#0,	r15	;#0x0000
    400e:	0f 93       	tst	r15		
    4010:	05 24       	jz	$+12     	;abs 0x401c
    4012:	2f 83       	decd	r15		
    4014:	9f 4f 46 47 	mov	18246(r15),4352(r15);0x4746(r15), 0x1100(r15)
    4018:	00 11 
    401a:	fb 23       	jnz	$-8      	;abs 0x4012

0000401c <__do_clear_bss>:
    401c:	3f 40 4a 00 	mov	#74,	r15	;#0x004a
    4020:	0f 93       	tst	r15		
    4022:	04 24       	jz	$+10     	;abs 0x402c
    4024:	1f 83       	dec	r15		
    4026:	cf 43 00 11 	mov.b	#0,	4352(r15);r3 As==00, 0x1100(r15)
    402a:	fc 23       	jnz	$-6      	;abs 0x4024

0000402c <__jump_to_main>:
    402c:	30 40 6e 40 	br	#0x406e	

00004030 <__ctors_end>:
    4030:	30 40 34 40 	br	#0x4034	

00004034 <_unexpected_>:
    4034:	00 13       	reti			

00004036 <CountDelay>:
#define YELLOWBLINKPRIO 0
#define GREENBLINKPRIO  1
#define REDBLINKPRIO    2

void CountDelay (volatile uint16_t cnt)
{
    4036:	21 83       	decd	r1		
    4038:	81 4f 00 00 	mov	r15,	0(r1)	;0x0000(r1)
  while (cnt--);
    403c:	2f 41       	mov	@r1,	r15	
    403e:	0e 4f       	mov	r15,	r14	
    4040:	3e 53       	add	#-1,	r14	;r3 As==11
    4042:	81 4e 00 00 	mov	r14,	0(r1)	;0x0000(r1)
    4046:	0f 93       	tst	r15		
    4048:	f9 23       	jnz	$-12     	;abs 0x403c
}
    404a:	21 53       	incd	r1		
    404c:	30 41       	ret			

0000404e <CountRealtimeDelay>:
void CountRealtimeDelay (uint16_t Ticks)
{
  uint16_t TicksPassed = 0;
  uint16_t OldTAR;

  Ticks *= 4; // multiply by 4, to get ms approximately!
    404e:	0f 5f       	rla	r15		
    4050:	0f 5f       	rla	r15		

  OldTAR = TAR; // store current value of TAR
    4052:	1d 42 70 01 	mov	&0x0170,r13	
    4056:	0e 43       	clr	r14		
  while (TicksPassed < Ticks) // continue until all ticks have passed
    4058:	07 3c       	jmp	$+16     	;abs 0x4068
  {
    if (OldTAR != TAR) // a new value of TAR exists, thus a tick has occured
    405a:	1c 42 70 01 	mov	&0x0170,r12	
    405e:	0d 9c       	cmp	r12,	r13	
    4060:	fc 27       	jz	$-6      	;abs 0x405a
    {
      TicksPassed++; // increment ticks counter
    4062:	1e 53       	inc	r14		
      OldTAR = TAR; // store new value of TAR as old value
    4064:	1d 42 70 01 	mov	&0x0170,r13	
  uint16_t OldTAR;

  Ticks *= 4; // multiply by 4, to get ms approximately!

  OldTAR = TAR; // store current value of TAR
  while (TicksPassed < Ticks) // continue until all ticks have passed
    4068:	0e 9f       	cmp	r15,	r14	
    406a:	f7 2b       	jnc	$-16     	;abs 0x405a
    {
      TicksPassed++; // increment ticks counter
      OldTAR = TAR; // store new value of TAR as old value
    }
  }
}
    406c:	30 41       	ret			

0000406e <main>:
  CountRealtimeDelay(ExecutionTime);
  SetLeds (RED, 0);
}

int main(void) 
{ 
    406e:	31 40 00 39 	mov	#14592,	r1	;#0x3900
  BusyPrio = NUMTASKS; // set the BusyPrio to a number greater than the largest task num
    4072:	f2 40 03 00 	mov.b	#3,	&0x1110	;#0x0003
    4076:	10 11 

  WDTCTL = WDTPW + WDTHOLD;       // Stop watchdog timer 
    4078:	b2 40 80 5a 	mov	#23168,	&0x0120	;#0x5a80
    407c:	20 01 
  
  InitClock ();
    407e:	b0 12 ac 41 	call	#0x41ac	

  InitLeds (RED | GREEN | YELLOW | WHITE | BROWN | PURPLE);
    4082:	7f 40 77 00 	mov.b	#119,	r15	;#0x0077
    4086:	b0 12 8c 41 	call	#0x418c	
  RegisterTask (0, 1024, 350, BlinkRed, REDBLINKPRIO, 0);
#endif

#ifdef Tst3
  // note: there 1024 ticks in second
  RegisterTask (0, 256, 30, BlinkYellow, YELLOWBLINKPRIO, 0); 
    408a:	43 12       	push.b	#0		;r3 As==00
    408c:	43 12       	push.b	#0		;r3 As==00
    408e:	3c 40 50 41 	mov	#16720,	r12	;#0x4150
    4092:	3d 40 1e 00 	mov	#30,	r13	;#0x001e
    4096:	3e 40 00 01 	mov	#256,	r14	;#0x0100
    409a:	0f 43       	clr	r15		
    409c:	b0 12 42 42 	call	#0x4242	
  RegisterTask (0, 512, 350, BlinkGreen, GREENBLINKPRIO, 0);
    40a0:	43 12       	push.b	#0		;r3 As==00
    40a2:	53 12       	push.b	#1		;r3 As==01
    40a4:	3c 40 14 41 	mov	#16660,	r12	;#0x4114
    40a8:	3d 40 5e 01 	mov	#350,	r13	;#0x015e
    40ac:	3e 40 00 02 	mov	#512,	r14	;#0x0200
    40b0:	0f 43       	clr	r15		
    40b2:	b0 12 42 42 	call	#0x4242	
  RegisterTask (0, 1024, 150, BlinkRed, REDBLINKPRIO, 0);
    40b6:	43 12       	push.b	#0		;r3 As==00
    40b8:	63 12       	push.b	#2		;r3 As==10
    40ba:	3c 40 d8 40 	mov	#16600,	r12	;#0x40d8
    40be:	3d 40 96 00 	mov	#150,	r13	;#0x0096
    40c2:	3e 40 00 04 	mov	#1024,	r14	;#0x0400
    40c6:	0f 43       	clr	r15		
    40c8:	b0 12 42 42 	call	#0x4242	
  RegisterTask (0, 128, 5, BlinkRed, 8, 0);
  RegisterTask (0, 256, 2, BlinkRed, 9, 0);
#endif


  _EINT();                        // Enable interrupts
    40cc:	32 d2       	eint			
    40ce:	31 50 0c 00 	add	#12,	r1	;#0x000c

  while(1) {
    EnterLowPowerMode3(); // idle task, set to low power mode 3 
    40d2:	32 c0 d0 00 	bic	#208,	r2	;#0x00d0
    40d6:	fd 3f       	jmp	$-4      	;abs 0x40d2

000040d8 <BlinkRed>:
  CountRealtimeDelay(ExecutionTime);
  SetLeds (GREEN, 0);
}

void BlinkRed (uint16_t ExecutionTime)
{
    40d8:	0b 12       	push	r11		
    40da:	0b 4f       	mov	r15,	r11	
  SetLeds (RED, 1);
    40dc:	5e 43       	mov.b	#1,	r14	;r3 As==01
    40de:	7f 40 10 00 	mov.b	#16,	r15	;#0x0010
    40e2:	b0 12 96 41 	call	#0x4196	
void CountRealtimeDelay (uint16_t Ticks)
{
  uint16_t TicksPassed = 0;
  uint16_t OldTAR;

  Ticks *= 4; // multiply by 4, to get ms approximately!
    40e6:	0f 4b       	mov	r11,	r15	
    40e8:	0f 5f       	rla	r15		
    40ea:	0f 5f       	rla	r15		

  OldTAR = TAR; // store current value of TAR
    40ec:	1d 42 70 01 	mov	&0x0170,r13	
    40f0:	0e 43       	clr	r14		
    40f2:	07 3c       	jmp	$+16     	;abs 0x4102
  while (TicksPassed < Ticks) // continue until all ticks have passed
  {
    if (OldTAR != TAR) // a new value of TAR exists, thus a tick has occured
    40f4:	1c 42 70 01 	mov	&0x0170,r12	
    40f8:	0d 9c       	cmp	r12,	r13	
    40fa:	fc 27       	jz	$-6      	;abs 0x40f4
    {
      TicksPassed++; // increment ticks counter
    40fc:	1e 53       	inc	r14		
      OldTAR = TAR; // store new value of TAR as old value
    40fe:	1d 42 70 01 	mov	&0x0170,r13	
  uint16_t OldTAR;

  Ticks *= 4; // multiply by 4, to get ms approximately!

  OldTAR = TAR; // store current value of TAR
  while (TicksPassed < Ticks) // continue until all ticks have passed
    4102:	0e 9f       	cmp	r15,	r14	
    4104:	f7 2b       	jnc	$-16     	;abs 0x40f4

void BlinkRed (uint16_t ExecutionTime)
{
  SetLeds (RED, 1);
  CountRealtimeDelay(ExecutionTime);
  SetLeds (RED, 0);
    4106:	4e 43       	clr.b	r14		
    4108:	7f 40 10 00 	mov.b	#16,	r15	;#0x0010
    410c:	b0 12 96 41 	call	#0x4196	
}
    4110:	3b 41       	pop	r11		
    4112:	30 41       	ret			

00004114 <BlinkGreen>:
  CountRealtimeDelay(ExecutionTime);
  SetLeds (YELLOW, 0);
}

void BlinkGreen (uint16_t ExecutionTime)
{
    4114:	0b 12       	push	r11		
    4116:	0b 4f       	mov	r15,	r11	
  SetLeds (GREEN, 1);
    4118:	5e 43       	mov.b	#1,	r14	;r3 As==01
    411a:	7f 40 20 00 	mov.b	#32,	r15	;#0x0020
    411e:	b0 12 96 41 	call	#0x4196	
void CountRealtimeDelay (uint16_t Ticks)
{
  uint16_t TicksPassed = 0;
  uint16_t OldTAR;

  Ticks *= 4; // multiply by 4, to get ms approximately!
    4122:	0f 4b       	mov	r11,	r15	
    4124:	0f 5f       	rla	r15		
    4126:	0f 5f       	rla	r15		

  OldTAR = TAR; // store current value of TAR
    4128:	1d 42 70 01 	mov	&0x0170,r13	
    412c:	0e 43       	clr	r14		
    412e:	07 3c       	jmp	$+16     	;abs 0x413e
  while (TicksPassed < Ticks) // continue until all ticks have passed
  {
    if (OldTAR != TAR) // a new value of TAR exists, thus a tick has occured
    4130:	1c 42 70 01 	mov	&0x0170,r12	
    4134:	0d 9c       	cmp	r12,	r13	
    4136:	fc 27       	jz	$-6      	;abs 0x4130
    {
      TicksPassed++; // increment ticks counter
    4138:	1e 53       	inc	r14		
      OldTAR = TAR; // store new value of TAR as old value
    413a:	1d 42 70 01 	mov	&0x0170,r13	
  uint16_t OldTAR;

  Ticks *= 4; // multiply by 4, to get ms approximately!

  OldTAR = TAR; // store current value of TAR
  while (TicksPassed < Ticks) // continue until all ticks have passed
    413e:	0e 9f       	cmp	r15,	r14	
    4140:	f7 2b       	jnc	$-16     	;abs 0x4130

void BlinkGreen (uint16_t ExecutionTime)
{
  SetLeds (GREEN, 1);
  CountRealtimeDelay(ExecutionTime);
  SetLeds (GREEN, 0);
    4142:	4e 43       	clr.b	r14		
    4144:	7f 40 20 00 	mov.b	#32,	r15	;#0x0020
    4148:	b0 12 96 41 	call	#0x4196	
}
    414c:	3b 41       	pop	r11		
    414e:	30 41       	ret			

00004150 <BlinkYellow>:
    }
  }
}

void BlinkYellow (uint16_t ExecutionTime)
{
    4150:	0b 12       	push	r11		
    4152:	0b 4f       	mov	r15,	r11	
  SetLeds (YELLOW, 1);
    4154:	5e 43       	mov.b	#1,	r14	;r3 As==01
    4156:	7f 40 40 00 	mov.b	#64,	r15	;#0x0040
    415a:	b0 12 96 41 	call	#0x4196	
void CountRealtimeDelay (uint16_t Ticks)
{
  uint16_t TicksPassed = 0;
  uint16_t OldTAR;

  Ticks *= 4; // multiply by 4, to get ms approximately!
    415e:	0f 4b       	mov	r11,	r15	
    4160:	0f 5f       	rla	r15		
    4162:	0f 5f       	rla	r15		

  OldTAR = TAR; // store current value of TAR
    4164:	1d 42 70 01 	mov	&0x0170,r13	
    4168:	0e 43       	clr	r14		
    416a:	07 3c       	jmp	$+16     	;abs 0x417a
  while (TicksPassed < Ticks) // continue until all ticks have passed
  {
    if (OldTAR != TAR) // a new value of TAR exists, thus a tick has occured
    416c:	1c 42 70 01 	mov	&0x0170,r12	
    4170:	0d 9c       	cmp	r12,	r13	
    4172:	fc 27       	jz	$-6      	;abs 0x416c
    {
      TicksPassed++; // increment ticks counter
    4174:	1e 53       	inc	r14		
      OldTAR = TAR; // store new value of TAR as old value
    4176:	1d 42 70 01 	mov	&0x0170,r13	
  uint16_t OldTAR;

  Ticks *= 4; // multiply by 4, to get ms approximately!

  OldTAR = TAR; // store current value of TAR
  while (TicksPassed < Ticks) // continue until all ticks have passed
    417a:	0e 9f       	cmp	r15,	r14	
    417c:	f7 2b       	jnc	$-16     	;abs 0x416c

void BlinkYellow (uint16_t ExecutionTime)
{
  SetLeds (YELLOW, 1);
  CountRealtimeDelay(ExecutionTime);
  SetLeds (YELLOW, 0);
    417e:	4e 43       	clr.b	r14		
    4180:	7f 40 40 00 	mov.b	#64,	r15	;#0x0040
    4184:	b0 12 96 41 	call	#0x4196	
}
    4188:	3b 41       	pop	r11		
    418a:	30 41       	ret			

0000418c <InitLeds>:
#include <iomacros.h>
#include "Led.h"

void InitLeds (uint8_t Colors)
{
  LEDDIR |= Colors;
    418c:	c2 df 32 00 	bis.b	r15,	&0x0032	
  LEDPIN = 0;
    4190:	c2 43 31 00 	mov.b	#0,	&0x0031	;r3 As==00
}
    4194:	30 41       	ret			

00004196 <SetLeds>:

void SetLeds (uint8_t Colors, uint8_t On)
{
  if (On) LEDPIN |= Colors;
    4196:	4e 93       	tst.b	r14		
    4198:	03 24       	jz	$+8      	;abs 0x41a0
    419a:	c2 df 31 00 	bis.b	r15,	&0x0031	
    419e:	30 41       	ret			
  else    LEDPIN &= ~Colors;
    41a0:	c2 cf 31 00 	bic.b	r15,	&0x0031	
    41a4:	30 41       	ret			

000041a6 <ToggleLeds>:
}

void ToggleLeds (uint8_t Colors)
{
  LEDPIN ^= Colors;
    41a6:	c2 ef 31 00 	xor.b	r15,	&0x0031	
}
    41aa:	30 41       	ret			

000041ac <InitClock>:

#define ACLOCK    32768  /* rate of the Aclock                               */

void InitClock (void)
{
	TACTL  = TASSEL0 + TACLR + ID0 + ID1 + TAIE; /* ACLK, clear TAR, set clock divider at 8 */
    41ac:	b2 40 c6 01 	mov	#454,	&0x0160	;#0x01c6
    41b0:	60 01 
	TACCR0   = 0;  /* start first interrupt right away     */
    41b2:	82 43 72 01 	mov	#0,	&0x0172	;r3 As==00
	TACCTL0  = CCIE;            /* CCR0 interrupt enabled                        */
    41b6:	b2 40 10 00 	mov	#16,	&0x0162	;#0x0010
    41ba:	62 01 
	TACTL |= MC1;		    /* Start Timer_a in continious mode */  
    41bc:	b2 d0 20 00 	bis	#32,	&0x0160	;#0x0020
    41c0:	60 01 
}
    41c2:	30 41       	ret			

000041c4 <ContextSwitch>:
static uint8_t Contexts[NUMTASKS];
static uint8_t CurrentContext = 0;

void ContextSwitch()
{
	Contexts[CurrentContext] = LEDPIN; // store current context
    41c4:	5f 42 00 11 	mov.b	&0x1100,r15	
    41c8:	4e 4f       	mov.b	r15,	r14	
    41ca:	de 42 31 00 	mov.b	&0x0031,4354(r14);0x1102(r14)
    41ce:	02 11 
	CurrentContext++;
    41d0:	5f 53       	inc.b	r15		
    41d2:	c2 4f 00 11 	mov.b	r15,	&0x1100	
	// TODO set this to 0xFF for leds
	LEDPIN = 0; // disable all leds
    41d6:	c2 43 31 00 	mov.b	#0,	&0x0031	;r3 As==00
}
    41da:	30 41       	ret			

000041dc <ResumeContext>:

void ResumeContext()
{
	CurrentContext--;
    41dc:	5f 42 00 11 	mov.b	&0x1100,r15	
    41e0:	7f 53       	add.b	#-1,	r15	;r3 As==11
    41e2:	c2 4f 00 11 	mov.b	r15,	&0x1100	
	LEDPIN = Contexts[CurrentContext]; // resume context
    41e6:	7f f3       	and.b	#-1,	r15	;r3 As==11
    41e8:	3f 50 02 11 	add	#4354,	r15	;#0x1102
    41ec:	e2 4f 31 00 	mov.b	@r15,	&0x0031	
}
    41f0:	30 41       	ret			

000041f2 <IntDisable>:

uint16_t IntDisable (void)
{
  uint16_t sw;
    // sw = r2
  asm volatile ("mov.w r2, %0\n\t" : "=r"(sw));
    41f2:	0f 42       	mov	r2,	r15	
  _DINT();
    41f4:	32 c2       	dint			
  return (sw);
}
    41f6:	30 41       	ret			

000041f8 <RestoreSW>:

void RestoreSW (uint16_t sw)
{
    // r2 = sw
  asm volatile ("mov.w %0, r2\n\t" :: "r"(sw));
    41f8:	02 4f       	mov	r15,	r2	
}  
    41fa:	30 41       	ret			

000041fc <InitTasks>:
void InitTasks (void)
{			
  uint8_t i=NUMTASKS-1; 
  do { 
    Taskp t = &Tasks[i];
    t->Flags = t->Activated = t->Invoked = 0;
    41fc:	3f 40 3d 11 	mov	#4413,	r15	;#0x113d
    4200:	cf 43 00 00 	mov.b	#0,	0(r15)	;r3 As==00, 0x0000(r15)
    4204:	0e 4f       	mov	r15,	r14	
    4206:	3e 53       	add	#-1,	r14	;r3 As==11
    4208:	ce 43 00 00 	mov.b	#0,	0(r14)	;r3 As==00, 0x0000(r14)
    420c:	6e 4e       	mov.b	@r14,	r14	
    420e:	7e f3       	and.b	#-1,	r14	;r3 As==11
    4210:	8f 4e 01 00 	mov	r14,	1(r15)	;0x0001(r15)
    4214:	cf 43 ee ff 	mov.b	#0,	-18(r15);r3 As==00, 0xffee(r15)
    4218:	0e 4f       	mov	r15,	r14	
    421a:	3e 50 ed ff 	add	#-19,	r14	;#0xffed
    421e:	ee 4f 00 00 	mov.b	@r15,	0(r14)	;0x0000(r14)
    4222:	6e 4e       	mov.b	@r14,	r14	
    4224:	7e f3       	and.b	#-1,	r14	;r3 As==11
    4226:	8f 4e ef ff 	mov	r14,	-17(r15);0xffef(r15)
    422a:	cf 43 dc ff 	mov.b	#0,	-36(r15);r3 As==00, 0xffdc(r15)
    422e:	0e 4f       	mov	r15,	r14	
    4230:	3e 50 db ff 	add	#-37,	r14	;#0xffdb
    4234:	ee 4f 00 00 	mov.b	@r15,	0(r14)	;0x0000(r14)
    4238:	6e 4e       	mov.b	@r14,	r14	
    423a:	7e f3       	and.b	#-1,	r14	;r3 As==11
    423c:	8f 4e dd ff 	mov	r14,	-35(r15);0xffdd(r15)
  } while (i--);
}
    4240:	30 41       	ret			

00004242 <RegisterTask>:
 * Each priority level has at most one task.
 */

uint8_t RegisterTask (uint16_t Phasing, uint16_t Period, uint16_t ExecutionTime,
                      void (*TaskFunc) (uint16_t), uint8_t Prio, uint8_t Flags)
{
    4242:	0b 12       	push	r11		
    4244:	0a 12       	push	r10		
    4246:	09 12       	push	r9		
    4248:	05 12       	push	r5		
    424a:	05 41       	mov	r1,	r5	
    424c:	35 50 0a 00 	add	#10,	r5	;#0x000a
    4250:	6a 45       	mov.b	@r5,	r10	
    4252:	59 45 02 00 	mov.b	2(r5),	r9	;0x0002(r5)
  uint16_t sw;

  Phasing *= 4; // correct to get ms approximately
  Period *=4; // correct to get ms approximately

  if (Prio>=NUMTASKS) return (E_BOUNDS); // out of bounds
    4256:	7a 90 03 00 	cmp.b	#3,	r10	;#0x0003
    425a:	02 28       	jnc	$+6      	;abs 0x4260
    425c:	5f 43       	mov.b	#1,	r15	;r3 As==01
    425e:	31 3c       	jmp	$+100    	;abs 0x42c2
{
  uint8_t  rtc = E_SUCCESS;
  uint16_t sw;

  Phasing *= 4; // correct to get ms approximately
  Period *=4; // correct to get ms approximately
    4260:	0e 5e       	rla	r14		
    4262:	0e 5e       	rla	r14		

  if (Prio>=NUMTASKS) return (E_BOUNDS); // out of bounds
  if (Period == 0) return (E_WRONGPAR);
    4264:	0e 93       	tst	r14		
    4266:	03 20       	jnz	$+8      	;abs 0x426e
    4268:	7f 40 05 00 	mov.b	#5,	r15	;#0x0005
    426c:	2a 3c       	jmp	$+86     	;abs 0x42c2

uint16_t IntDisable (void)
{
  uint16_t sw;
    // sw = r2
  asm volatile ("mov.w r2, %0\n\t" : "=r"(sw));
    426e:	05 42       	mov	r2,	r5	
  _DINT();
    4270:	32 c2       	dint			
  Period *=4; // correct to get ms approximately

  if (Prio>=NUMTASKS) return (E_BOUNDS); // out of bounds
  if (Period == 0) return (E_WRONGPAR);
  sw = IntDisable (); 
  Taskp t = &Tasks[Prio]; 
    4272:	4b 4a       	mov.b	r10,	r11	
    4274:	0b 5b       	rla	r11		
    4276:	0b 5b       	rla	r11		
    4278:	0b 5b       	rla	r11		
    427a:	0b 5b       	rla	r11		
    427c:	7a f3       	and.b	#-1,	r10	;r3 As==11
    427e:	0a 5a       	rla	r10		
    4280:	0b 5a       	add	r10,	r11	
    4282:	3b 50 12 11 	add	#4370,	r11	;#0x1112
  if (t->Flags) rtc = E_BUSY; 
    4286:	1a 4b 08 00 	mov	8(r11),	r10	;0x0008(r11)
    428a:	0a 93       	tst	r10		
    428c:	02 24       	jz	$+6      	;abs 0x4292
    428e:	6f 43       	mov.b	#2,	r15	;r3 As==10
    4290:	17 3c       	jmp	$+48     	;abs 0x42c0
                      void (*TaskFunc) (uint16_t), uint8_t Prio, uint8_t Flags)
{
  uint8_t  rtc = E_SUCCESS;
  uint16_t sw;

  Phasing *= 4; // correct to get ms approximately
    4292:	0f 5f       	rla	r15		
  if (Period == 0) return (E_WRONGPAR);
  sw = IntDisable (); 
  Taskp t = &Tasks[Prio]; 
  if (t->Flags) rtc = E_BUSY; 
  else {
    t->NextRelease = 0 + Phasing;
    4294:	0f 5f       	rla	r15		
    4296:	8b 4f 00 00 	mov	r15,	0(r11)	;0x0000(r11)
    t->Period    = Period; 
    429a:	8b 4e 04 00 	mov	r14,	4(r11)	;0x0004(r11)
    t->NextPendingDeadline = t->NextRelease + Period;
    429e:	2e 5b       	add	@r11,	r14	
    42a0:	8b 4e 02 00 	mov	r14,	2(r11)	;0x0002(r11)
    t->Activated = t->Invoked = 0; 
    42a4:	cb 4a 07 00 	mov.b	r10,	7(r11)	;0x0007(r11)
    42a8:	cb 4a 06 00 	mov.b	r10,	6(r11)	;0x0006(r11)
    t->Taskf     = TaskFunc; 
    42ac:	8b 4c 0c 00 	mov	r12,	12(r11)	;0x000c(r11)
    t->ExecutionTime = ExecutionTime;
    42b0:	8b 4d 0a 00 	mov	r13,	10(r11)	;0x000a(r11)
    t->Flags     = Flags | TRIGGERED;
    42b4:	79 d0 40 00 	bis.b	#64,	r9	;#0x0040
    42b8:	79 f3       	and.b	#-1,	r9	;r3 As==11
    42ba:	8b 49 08 00 	mov	r9,	8(r11)	;0x0008(r11)
    42be:	4f 4a       	mov.b	r10,	r15	
}

void RestoreSW (uint16_t sw)
{
    // r2 = sw
  asm volatile ("mov.w %0, r2\n\t" :: "r"(sw));
    42c0:	02 45       	mov	r5,	r2	
    t->Flags     = Flags | TRIGGERED;

  }
  RestoreSW (sw);
  return (rtc);
}
    42c2:	35 41       	pop	r5		
    42c4:	39 41       	pop	r9		
    42c6:	3a 41       	pop	r10		
    42c8:	3b 41       	pop	r11		
    42ca:	30 41       	ret			

000042cc <UnRegisterTask>:

uint8_t UnRegisterTask (uint8_t t)
{
  Tasks[t].Flags = 0;
    42cc:	7f f3       	and.b	#-1,	r15	;r3 As==11
    42ce:	0e 4f       	mov	r15,	r14	
    42d0:	0e 5e       	rla	r14		
    42d2:	0e 5e       	rla	r14		
    42d4:	0e 5e       	rla	r14		
    42d6:	0e 5f       	add	r15,	r14	
    42d8:	0e 5e       	rla	r14		
    42da:	8e 43 1a 11 	mov	#0,	4378(r14);r3 As==00, 0x111a(r14)
  return (E_SUCCESS);
}  
    42de:	4f 43       	clr.b	r15		
    42e0:	30 41       	ret			

000042e2 <gcd>:

  Use the Task data structure defined in 'Scheduler.h' to store information which can be used by the scheduler.

*/
// for calculating hyper period
int gcd(int a, int b) {
    42e2:	0b 12       	push	r11		
    42e4:	0a 12       	push	r10		
    42e6:	09 12       	push	r9		
    42e8:	09 4e       	mov	r14,	r9	
  if (b == 0) {
    42ea:	0e 93       	tst	r14		
    42ec:	06 24       	jz	$+14     	;abs 0x42fa
    return a;
  }
  return gcd(b, a % b);
    42ee:	0c 4f       	mov	r15,	r12	
    42f0:	0a 4e       	mov	r14,	r10	
    42f2:	b0 12 10 47 	call	#0x4710	
    42f6:	0f 49       	mov	r9,	r15	
    42f8:	f7 3f       	jmp	$-16     	;abs 0x42e8
}
    42fa:	39 41       	pop	r9		
    42fc:	3a 41       	pop	r10		
    42fe:	3b 41       	pop	r11		
    4300:	30 41       	ret			

00004302 <lcm>:

// for calculating hyper period
int lcm(int a, int b) {
    4302:	0b 12       	push	r11		
    4304:	0a 12       	push	r10		
    4306:	09 12       	push	r9		
    4308:	08 12       	push	r8		
    430a:	08 4e       	mov	r14,	r8	
    430c:	09 4e       	mov	r14,	r9	
    430e:	0a 4f       	mov	r15,	r10	
  Use the Task data structure defined in 'Scheduler.h' to store information which can be used by the scheduler.

*/
// for calculating hyper period
int gcd(int a, int b) {
  if (b == 0) {
    4310:	09 93       	tst	r9		
    4312:	07 24       	jz	$+16     	;abs 0x4322
    return a;
  }
  return gcd(b, a % b);
    4314:	0c 4a       	mov	r10,	r12	
    4316:	0a 49       	mov	r9,	r10	
    4318:	b0 12 10 47 	call	#0x4710	
    431c:	0a 49       	mov	r9,	r10	
    431e:	09 4e       	mov	r14,	r9	
    4320:	f7 3f       	jmp	$-16     	;abs 0x4310
    4322:	02 12       	push	r2		
    4324:	32 c2       	dint			
    4326:	03 43       	nop			
    4328:	82 48 32 01 	mov	r8,	&0x0132	
    432c:	82 4f 38 01 	mov	r15,	&0x0138	
    4330:	1c 42 3a 01 	mov	&0x013a,r12	
    4334:	32 41       	pop	r2		
    4336:	b0 12 10 47 	call	#0x4710	
}

// for calculating hyper period
int lcm(int a, int b) {
  return (a * b) / gcd(a, b);
}
    433a:	0f 4c       	mov	r12,	r15	
    433c:	38 41       	pop	r8		
    433e:	39 41       	pop	r9		
    4340:	3a 41       	pop	r10		
    4342:	3b 41       	pop	r11		
    4344:	30 41       	ret			

00004346 <TimerIntrpt>:

interrupt (TIMERA0_VECTOR) TimerIntrpt (void)
{
    4346:	0f 12       	push	r15		
    4348:	0e 12       	push	r14		
    434a:	0d 12       	push	r13		
    434c:	0c 12       	push	r12		
    434e:	0b 12       	push	r11		
    4350:	0a 12       	push	r10		
    4352:	09 12       	push	r9		
    4354:	08 12       	push	r8		
    4356:	07 12       	push	r7		
  ContextSwitch();
    4358:	b0 12 c4 41 	call	#0x41c4	
  // uint16_t hyperperiod = 0;
  uint8_t i = 0;
  uint16_t oldNextInterruptTime = NextInterruptTime; // This is the current time when interrupt occurrs
    435c:	18 42 48 11 	mov	&0x1148,r8	
  // for (i = 0; i < NUMTASKS; i++) {
  //   Taskp t = &Tasks[i];
  //   hyperperiod = lcm(hyperperiod, t->Period);
  // }

  if (oldNextInterruptTime % (1024*4) == 0) {
    4360:	07 48       	mov	r8,	r7	
    4362:	37 f0 ff 0f 	and	#4095,	r7	;#0x0fff
    4366:	04 24       	jz	$+10     	;abs 0x4370
    4368:	39 40 12 11 	mov	#4370,	r9	;#0x1112
// for calculating hyper period
int lcm(int a, int b) {
  return (a * b) / gcd(a, b);
}

interrupt (TIMERA0_VECTOR) TimerIntrpt (void)
    436c:	0f 49       	mov	r9,	r15	
    436e:	14 3c       	jmp	$+42     	;abs 0x4398
    4370:	3f 40 12 11 	mov	#4370,	r15	;#0x1112
  // }

  if (oldNextInterruptTime % (1024*4) == 0) {
    for (i = 0; i < NUMTASKS; i++) {
      Taskp t = &Tasks[i];
      t->NextRelease += t->Period;
    4374:	9f 5f 04 00 	add	4(r15),	0(r15)	;0x0004(r15), 0x0000(r15)
    4378:	00 00 
      if(oldNextInterruptTime != 0){
    437a:	08 93       	tst	r8		
    437c:	03 24       	jz	$+8      	;abs 0x4384
        t->NextPendingDeadline += t->Period;
    437e:	9f 5f 04 00 	add	4(r15),	2(r15)	;0x0004(r15), 0x0002(r15)
    4382:	02 00 
      }
      
      t->Activated++;
    4384:	df 53 06 00 	inc.b	6(r15)		;0x0006(r15)
      t->FlagNextInterrupt = 0;
    4388:	cf 43 0f 00 	mov.b	#0,	15(r15)	;r3 As==00, 0x000f(r15)
    438c:	3f 50 12 00 	add	#18,	r15	;#0x0012
  //   Taskp t = &Tasks[i];
  //   hyperperiod = lcm(hyperperiod, t->Period);
  // }

  if (oldNextInterruptTime % (1024*4) == 0) {
    for (i = 0; i < NUMTASKS; i++) {
    4390:	3f 90 48 11 	cmp	#4424,	r15	;#0x1148
    4394:	ef 23       	jnz	$-32     	;abs 0x4374
    4396:	e8 3f       	jmp	$-46     	;abs 0x4368
    }
  }

  for (i = 0; i < NUMTASKS; i++) {
    Taskp t = &Tasks[i];
    if (t->FlagNextInterrupt == TT) {
    4398:	ef 92 0f 00 	cmp.b	#4,	15(r15)	;r2 As==10, 0x000f(r15)
    439c:	08 20       	jnz	$+18     	;abs 0x43ae
      t->NextRelease += t->Period;
    439e:	9f 5f 04 00 	add	4(r15),	0(r15)	;0x0004(r15), 0x0000(r15)
    43a2:	00 00 
      t->NextPendingDeadline += t->Period;
    43a4:	9f 5f 04 00 	add	4(r15),	2(r15)	;0x0004(r15), 0x0002(r15)
    43a8:	02 00 
      // t->Activated++;
      t->FlagNextInterrupt = 0;
    43aa:	cf 43 0f 00 	mov.b	#0,	15(r15)	;r3 As==00, 0x000f(r15)
    43ae:	3f 50 12 00 	add	#18,	r15	;#0x0012
      t->Activated++;
      t->FlagNextInterrupt = 0;
    }
  }

  for (i = 0; i < NUMTASKS; i++) {
    43b2:	3f 90 48 11 	cmp	#4424,	r15	;#0x1148
    43b6:	f0 23       	jnz	$-30     	;abs 0x4398
      t->FlagNextInterrupt = 0;
    }
  }

  Taskp t = &Tasks[0];
  NextInterruptTime = t->NextRelease;
    43b8:	1e 42 12 11 	mov	&0x1112,r14	


  for (i = 0; i < NUMTASKS; i++) {
    Taskp t = &Tasks[i];
    DetermineNextInterruptTime(t->NextRelease);
    43bc:	1f 42 12 11 	mov	&0x1112,r15	
    43c0:	0e 9f       	cmp	r15,	r14	
    43c2:	01 2c       	jc	$+4      	;abs 0x43c6
    43c4:	0f 4e       	mov	r14,	r15	
    43c6:	1e 42 24 11 	mov	&0x1124,r14	
    43ca:	0f 9e       	cmp	r14,	r15	
    43cc:	01 2c       	jc	$+4      	;abs 0x43d0
    43ce:	0e 4f       	mov	r15,	r14	
    43d0:	1f 42 36 11 	mov	&0x1136,r15	
    43d4:	0e 9f       	cmp	r15,	r14	
    43d6:	01 2c       	jc	$+4      	;abs 0x43da
    43d8:	0f 4e       	mov	r14,	r15	
    43da:	82 4f 48 11 	mov	r15,	&0x1148	
  }

  
  for (i = 0; i < NUMTASKS; i++) {
    Taskp t = &Tasks[i];
    if (t->NextRelease == NextInterruptTime) {
    43de:	2f 99       	cmp	@r9,	r15	
    43e0:	02 20       	jnz	$+6      	;abs 0x43e6
      t->FlagNextInterrupt = TT;
    43e2:	e9 42 0f 00 	mov.b	#4,	15(r9)	;r2 As==10, 0x000f(r9)
    }

    if ((oldNextInterruptTime % t->Period == 0) && (oldNextInterruptTime % (1024*4) != 0)) {
    43e6:	0c 48       	mov	r8,	r12	
    43e8:	1a 49 04 00 	mov	4(r9),	r10	;0x0004(r9)
    43ec:	b0 12 f4 46 	call	#0x46f4	
    43f0:	0e 93       	tst	r14		
    43f2:	04 20       	jnz	$+10     	;abs 0x43fc
    43f4:	07 9e       	cmp	r14,	r7	
    43f6:	02 24       	jz	$+6      	;abs 0x43fc
      t->Activated++;
    43f8:	d9 53 06 00 	inc.b	6(r9)		;0x0006(r9)
    43fc:	39 50 12 00 	add	#18,	r9	;#0x0012
    Taskp t = &Tasks[i];
    DetermineNextInterruptTime(t->NextRelease);
  }

  
  for (i = 0; i < NUMTASKS; i++) {
    4400:	39 90 48 11 	cmp	#4424,	r9	;#0x1148
    4404:	ec 23       	jnz	$-38     	;abs 0x43de
      t->Activated++;
    }
  }
 

  TACCR0 = NextInterruptTime;
    4406:	82 4f 72 01 	mov	r15,	&0x0172	

  CALL_SCHEDULER;
    440a:	3f 40 12 11 	mov	#4370,	r15	;#0x1112
    440e:	b0 12 94 44 	call	#0x4494	

  ResumeContext();
    4412:	b0 12 dc 41 	call	#0x41dc	
}
    4416:	37 41       	pop	r7		
    4418:	38 41       	pop	r8		
    441a:	39 41       	pop	r9		
    441c:	3a 41       	pop	r10		
    441e:	3b 41       	pop	r11		
    4420:	3c 41       	pop	r12		
    4422:	3d 41       	pop	r13		
    4424:	3e 41       	pop	r14		
    4426:	3f 41       	pop	r15		
    4428:	00 13       	reti			

0000442a <Scheduler_P_FP>:
  /* ---------------------------------------------------------------- */

}

void Scheduler_P_FP (Task Tasks[])
{ 
    442a:	0b 12       	push	r11		
    442c:	0a 12       	push	r10		
    442e:	09 12       	push	r9		
    4430:	0a 4f       	mov	r15,	r10	
  /* ----------------------- INSERT CODE HERE ----------------------- */

  /* Super simple, single task example */

  uint8_t oldBP = BusyPrio; // Set BusyPrio as the priority of the currently running task (the one that was executing just before the scheduler is called)
    4432:	59 42 10 11 	mov.b	&0x1110,r9	

  for(BusyPrio = 0; BusyPrio < oldBP; BusyPrio++) {
    4436:	c2 43 10 11 	mov.b	#0,	&0x1110	;r3 As==00
    443a:	25 3c       	jmp	$+76     	;abs 0x4486
    Taskp t = &Tasks[BusyPrio];
    443c:	5d 42 10 11 	mov.b	&0x1110,r13	
    4440:	4e 4d       	mov.b	r13,	r14	
    4442:	0e 5e       	rla	r14		
    4444:	0e 5e       	rla	r14		
    4446:	0e 5e       	rla	r14		
    4448:	0e 5e       	rla	r14		
    444a:	7d f3       	and.b	#-1,	r13	;r3 As==11
    444c:	0d 5d       	rla	r13		
    444e:	0e 5d       	add	r13,	r14	
    4450:	0b 4a       	mov	r10,	r11	
    4452:	0b 5e       	add	r14,	r11	
    while ((t->Activated != t->Invoked) && (t->Flags & TRIGGERED))
    4454:	0d 3c       	jmp	$+28     	;abs 0x4470
    {
      _EINT(); 
    4456:	32 d2       	eint			

static void ExecuteTask (Taskp t)
{
  /* ----------------------- INSERT CODE HERE ----------------------- */

  t->Invoked++;
    4458:	5e 53       	inc.b	r14		
    445a:	cb 4e 07 00 	mov.b	r14,	7(r11)	;0x0007(r11)
  t->Taskf(t->ExecutionTime); // execute task
    445e:	1f 4b 0a 00 	mov	10(r11),r15	;0x000a(r11)
    4462:	9b 12 0c 00 	call	12(r11)	;0x000c(r11)
    Taskp t = &Tasks[BusyPrio];
    while ((t->Activated != t->Invoked) && (t->Flags & TRIGGERED))
    {
      _EINT(); 
      ExecuteTask(t);
      _DINT();
    4466:	32 c2       	dint			
      t->Activated = t->Invoked;
    4468:	5f 4b 07 00 	mov.b	7(r11),	r15	;0x0007(r11)
    446c:	cb 4f 06 00 	mov.b	r15,	6(r11)	;0x0006(r11)

  uint8_t oldBP = BusyPrio; // Set BusyPrio as the priority of the currently running task (the one that was executing just before the scheduler is called)

  for(BusyPrio = 0; BusyPrio < oldBP; BusyPrio++) {
    Taskp t = &Tasks[BusyPrio];
    while ((t->Activated != t->Invoked) && (t->Flags & TRIGGERED))
    4470:	5e 4b 07 00 	mov.b	7(r11),	r14	;0x0007(r11)
    4474:	cb 9e 06 00 	cmp.b	r14,	6(r11)	;0x0006(r11)
    4478:	04 24       	jz	$+10     	;abs 0x4482
    447a:	bb b0 40 00 	bit	#64,	8(r11)	;#0x0040, 0x0008(r11)
    447e:	08 00 
    4480:	ea 23       	jnz	$-42     	;abs 0x4456

  /* Super simple, single task example */

  uint8_t oldBP = BusyPrio; // Set BusyPrio as the priority of the currently running task (the one that was executing just before the scheduler is called)

  for(BusyPrio = 0; BusyPrio < oldBP; BusyPrio++) {
    4482:	d2 53 10 11 	inc.b	&0x1110	
    4486:	c2 99 10 11 	cmp.b	r9,	&0x1110	
    448a:	d8 2b       	jnc	$-78     	;abs 0x443c
  //   ExecuteTask(t);
  // }
  /* End of example*/

  /* ---------------------------------------------------------------- */
}
    448c:	39 41       	pop	r9		
    448e:	3a 41       	pop	r10		
    4490:	3b 41       	pop	r11		
    4492:	30 41       	ret			

00004494 <Scheduler_P_EDF>:
  t->Invoked++;
  t->Taskf(t->ExecutionTime); // execute task
}

void Scheduler_P_EDF (Task Tasks[])
{ 
    4494:	0b 12       	push	r11		
    4496:	0a 12       	push	r10		
    4498:	09 12       	push	r9		
    449a:	08 12       	push	r8		
    449c:	07 12       	push	r7		
    449e:	04 12       	push	r4		
    44a0:	31 50 f6 ff 	add	#-10,	r1	;#0xfff6
    44a4:	0b 4f       	mov	r15,	r11	
  uint8_t oldBP = BusyPrio; // Set BusyPrio as the priority of the currently running task (the one that was executing just before the scheduler is called)
    44a6:	58 42 10 11 	mov.b	&0x1110,r8	
  uint8_t i = 0;
  uint8_t new_prio[10];
  uint8_t a = 0;
  uint8_t b = 0;
  for(i = 0; i < NUMTASKS; i++){
    new_prio[i] = i;
    44aa:	c1 43 00 00 	mov.b	#0,	0(r1)	;r3 As==00, 0x0000(r1)
    44ae:	d1 43 01 00 	mov.b	#1,	1(r1)	;r3 As==01, 0x0001(r1)
    44b2:	e1 43 02 00 	mov.b	#2,	2(r1)	;r3 As==10, 0x0002(r1)
    44b6:	4d 43       	clr.b	r13		
    44b8:	0a 3c       	jmp	$+22     	;abs 0x44ce
      Taskp t = &Tasks[new_prio[i]];
      Taskp t1 = &Tasks[new_prio[i - 1]];
      a = new_prio[i];
      b = new_prio[i - 1];
      if(t->NextPendingDeadline < t1->NextPendingDeadline){
        new_prio[i] = b;
    44ba:	e1 41 01 00 	mov.b	@r1,	1(r1)	;0x0001(r1)
        new_prio[i - 1] = a;
    44be:	c1 4c 00 00 	mov.b	r12,	0(r1)	;0x0000(r1)
  for(i = 0; i < NUMTASKS; i++){
    new_prio[i] = i;
  }
  uint8_t c = 0;

  for(c = 0; c < NUMTASKS; c++){
    44c2:	5d 53       	inc.b	r13		
    44c4:	7d 90 03 00 	cmp.b	#3,	r13	;#0x0003
    44c8:	02 20       	jnz	$+6      	;abs 0x44ce
    44ca:	4d 43       	clr.b	r13		
    44cc:	4a 3c       	jmp	$+150    	;abs 0x4562
    for(i = NUMTASKS - 1; i > 0; i--){
      Taskp t = &Tasks[new_prio[i]];
    44ce:	5c 41 02 00 	mov.b	2(r1),	r12	;0x0002(r1)
    44d2:	4e 4c       	mov.b	r12,	r14	
    44d4:	0e 5e       	rla	r14		
    44d6:	0e 5e       	rla	r14		
    44d8:	0e 5e       	rla	r14		
    44da:	0e 5e       	rla	r14		
    44dc:	4f 4c       	mov.b	r12,	r15	
    44de:	0f 5f       	rla	r15		
    44e0:	0e 5f       	add	r15,	r14	
    44e2:	09 4b       	mov	r11,	r9	
    44e4:	09 5e       	add	r14,	r9	
      Taskp t1 = &Tasks[new_prio[i - 1]];
    44e6:	5a 41 01 00 	mov.b	1(r1),	r10	;0x0001(r1)
    44ea:	4e 4a       	mov.b	r10,	r14	
    44ec:	0e 5e       	rla	r14		
    44ee:	0e 5e       	rla	r14		
    44f0:	0e 5e       	rla	r14		
    44f2:	0e 5e       	rla	r14		
    44f4:	4f 4a       	mov.b	r10,	r15	
    44f6:	0f 5f       	rla	r15		
    44f8:	0e 5f       	add	r15,	r14	
    44fa:	0f 4b       	mov	r11,	r15	
    44fc:	0f 5e       	add	r14,	r15	
      a = new_prio[i];
      b = new_prio[i - 1];
      if(t->NextPendingDeadline < t1->NextPendingDeadline){
    44fe:	1e 49 02 00 	mov	2(r9),	r14	;0x0002(r9)
    4502:	1f 4f 02 00 	mov	2(r15),	r15	;0x0002(r15)
    4506:	0e 9f       	cmp	r15,	r14	
    4508:	04 2c       	jc	$+10     	;abs 0x4512
        new_prio[i] = b;
    450a:	c1 4a 02 00 	mov.b	r10,	2(r1)	;0x0002(r1)
        new_prio[i - 1] = a;
    450e:	c1 4c 01 00 	mov.b	r12,	1(r1)	;0x0001(r1)
  }
  uint8_t c = 0;

  for(c = 0; c < NUMTASKS; c++){
    for(i = NUMTASKS - 1; i > 0; i--){
      Taskp t = &Tasks[new_prio[i]];
    4512:	5c 41 01 00 	mov.b	1(r1),	r12	;0x0001(r1)
    4516:	4e 4c       	mov.b	r12,	r14	
    4518:	0e 5e       	rla	r14		
    451a:	0e 5e       	rla	r14		
    451c:	0e 5e       	rla	r14		
    451e:	0e 5e       	rla	r14		
    4520:	4f 4c       	mov.b	r12,	r15	
    4522:	0f 5f       	rla	r15		
    4524:	0e 5f       	add	r15,	r14	
    4526:	0a 4b       	mov	r11,	r10	
    4528:	0a 5e       	add	r14,	r10	
      Taskp t1 = &Tasks[new_prio[i - 1]];
    452a:	6f 41       	mov.b	@r1,	r15	
    452c:	4e 4f       	mov.b	r15,	r14	
    452e:	0e 5e       	rla	r14		
    4530:	0e 5e       	rla	r14		
    4532:	0e 5e       	rla	r14		
    4534:	0e 5e       	rla	r14		
    4536:	0f 5f       	rla	r15		
    4538:	0e 5f       	add	r15,	r14	
    453a:	0f 4b       	mov	r11,	r15	
    453c:	0f 5e       	add	r14,	r15	
      a = new_prio[i];
      b = new_prio[i - 1];
      if(t->NextPendingDeadline < t1->NextPendingDeadline){
    453e:	1e 4a 02 00 	mov	2(r10),	r14	;0x0002(r10)
    4542:	1f 4f 02 00 	mov	2(r15),	r15	;0x0002(r15)
    4546:	0e 9f       	cmp	r15,	r14	
    4548:	b8 2b       	jnc	$-142    	;abs 0x44ba
    454a:	bb 3f       	jmp	$-136    	;abs 0x44c2
      // if(t1->Activated == t1->Invoked){
      //   new_prio[i] = b;
      //   new_prio[i - 1] = a;
      // }
      if(t->NextPendingDeadline == t1->NextPendingDeadline){
        if(t1->BusyFlag == 1){
    454c:	df 93 10 00 	cmp.b	#1,	16(r15)	;r3 As==01, 0x0010(r15)
    4550:	04 20       	jnz	$+10     	;abs 0x455a
          new_prio[i] = b;
    4552:	e1 41 01 00 	mov.b	@r1,	1(r1)	;0x0001(r1)
          new_prio[i - 1] = a;
    4556:	c1 4c 00 00 	mov.b	r12,	0(r1)	;0x0000(r1)
        new_prio[i] = b;
        new_prio[i - 1] = a;
      }
    }
  }
  for(c = 0; c < NUMTASKS; c++){
    455a:	5d 53       	inc.b	r13		
    455c:	7d 90 03 00 	cmp.b	#3,	r13	;#0x0003
    4560:	42 24       	jz	$+134    	;abs 0x45e6
    for(i = NUMTASKS - 1; i > 0; i--){
      Taskp t = &Tasks[new_prio[i]];
    4562:	5c 41 02 00 	mov.b	2(r1),	r12	;0x0002(r1)
    4566:	4e 4c       	mov.b	r12,	r14	
    4568:	0e 5e       	rla	r14		
    456a:	0e 5e       	rla	r14		
    456c:	0e 5e       	rla	r14		
    456e:	0e 5e       	rla	r14		
    4570:	4f 4c       	mov.b	r12,	r15	
    4572:	0f 5f       	rla	r15		
    4574:	0e 5f       	add	r15,	r14	
    4576:	09 4b       	mov	r11,	r9	
    4578:	09 5e       	add	r14,	r9	
      Taskp t1 = &Tasks[new_prio[i - 1]];
    457a:	5a 41 01 00 	mov.b	1(r1),	r10	;0x0001(r1)
    457e:	4e 4a       	mov.b	r10,	r14	
    4580:	0e 5e       	rla	r14		
    4582:	0e 5e       	rla	r14		
    4584:	0e 5e       	rla	r14		
    4586:	0e 5e       	rla	r14		
    4588:	4f 4a       	mov.b	r10,	r15	
    458a:	0f 5f       	rla	r15		
    458c:	0e 5f       	add	r15,	r14	
    458e:	0f 4b       	mov	r11,	r15	
    4590:	0f 5e       	add	r14,	r15	
      b = new_prio[i - 1];
      // if(t1->Activated == t1->Invoked){
      //   new_prio[i] = b;
      //   new_prio[i - 1] = a;
      // }
      if(t->NextPendingDeadline == t1->NextPendingDeadline){
    4592:	19 49 02 00 	mov	2(r9),	r9	;0x0002(r9)
    4596:	1e 4f 02 00 	mov	2(r15),	r14	;0x0002(r15)
    459a:	09 9e       	cmp	r14,	r9	
    459c:	07 20       	jnz	$+16     	;abs 0x45ac
        if(t1->BusyFlag == 1){
    459e:	df 93 10 00 	cmp.b	#1,	16(r15)	;r3 As==01, 0x0010(r15)
    45a2:	04 20       	jnz	$+10     	;abs 0x45ac
          new_prio[i] = b;
    45a4:	c1 4a 02 00 	mov.b	r10,	2(r1)	;0x0002(r1)
          new_prio[i - 1] = a;
    45a8:	c1 4c 01 00 	mov.b	r12,	1(r1)	;0x0001(r1)
      }
    }
  }
  for(c = 0; c < NUMTASKS; c++){
    for(i = NUMTASKS - 1; i > 0; i--){
      Taskp t = &Tasks[new_prio[i]];
    45ac:	5c 41 01 00 	mov.b	1(r1),	r12	;0x0001(r1)
    45b0:	4e 4c       	mov.b	r12,	r14	
    45b2:	0e 5e       	rla	r14		
    45b4:	0e 5e       	rla	r14		
    45b6:	0e 5e       	rla	r14		
    45b8:	0e 5e       	rla	r14		
    45ba:	4f 4c       	mov.b	r12,	r15	
    45bc:	0f 5f       	rla	r15		
    45be:	0e 5f       	add	r15,	r14	
    45c0:	0a 4b       	mov	r11,	r10	
    45c2:	0a 5e       	add	r14,	r10	
      Taskp t1 = &Tasks[new_prio[i - 1]];
    45c4:	6f 41       	mov.b	@r1,	r15	
    45c6:	4e 4f       	mov.b	r15,	r14	
    45c8:	0e 5e       	rla	r14		
    45ca:	0e 5e       	rla	r14		
    45cc:	0e 5e       	rla	r14		
    45ce:	0e 5e       	rla	r14		
    45d0:	0f 5f       	rla	r15		
    45d2:	0e 5f       	add	r15,	r14	
    45d4:	0f 4b       	mov	r11,	r15	
    45d6:	0f 5e       	add	r14,	r15	
      b = new_prio[i - 1];
      // if(t1->Activated == t1->Invoked){
      //   new_prio[i] = b;
      //   new_prio[i - 1] = a;
      // }
      if(t->NextPendingDeadline == t1->NextPendingDeadline){
    45d8:	1a 4a 02 00 	mov	2(r10),	r10	;0x0002(r10)
    45dc:	1e 4f 02 00 	mov	2(r15),	r14	;0x0002(r15)
    45e0:	0a 9e       	cmp	r14,	r10	
    45e2:	bb 23       	jnz	$-136    	;abs 0x455a
    45e4:	b3 3f       	jmp	$-152    	;abs 0x454c
    45e6:	04 41       	mov	r1,	r4	
{
  t->Invoked++;
  t->Taskf(t->ExecutionTime); // execute task
}

void Scheduler_P_EDF (Task Tasks[])
    45e8:	07 41       	mov	r1,	r7	
    45ea:	37 50 03 00 	add	#3,	r7	;#0x0003
      }
    }
  }

  for(i = 0; i < NUMTASKS; i++){
    if(new_prio[i] == 0){
    45ee:	69 44       	mov.b	@r4,	r9	
    45f0:	49 93       	tst.b	r9		
    45f2:	08 20       	jnz	$+18     	;abs 0x4604
      SetLeds(PINK, 1);
    45f4:	5e 43       	mov.b	#1,	r14	;r3 As==01
    45f6:	7f 42       	mov.b	#8,	r15	;r2 As==11
    45f8:	b0 12 96 41 	call	#0x4196	
      SetLeds(PINK, 0);      
    45fc:	4e 49       	mov.b	r9,	r14	
    45fe:	7f 42       	mov.b	#8,	r15	;r2 As==11
    4600:	b0 12 96 41 	call	#0x4196	
    4604:	4a 43       	clr.b	r10		
    4606:	09 3c       	jmp	$+20     	;abs 0x461a
    }
    for(c = 0; c < new_prio[i]; c++){
      SetLeds(WHITE, 1);
    4608:	5e 43       	mov.b	#1,	r14	;r3 As==01
    460a:	6f 42       	mov.b	#4,	r15	;r2 As==10
    460c:	b0 12 96 41 	call	#0x4196	
      SetLeds(WHITE, 0);
    4610:	4e 43       	clr.b	r14		
    4612:	6f 42       	mov.b	#4,	r15	;r2 As==10
    4614:	b0 12 96 41 	call	#0x4196	
  for(i = 0; i < NUMTASKS; i++){
    if(new_prio[i] == 0){
      SetLeds(PINK, 1);
      SetLeds(PINK, 0);      
    }
    for(c = 0; c < new_prio[i]; c++){
    4618:	5a 53       	inc.b	r10		
    461a:	4a 99       	cmp.b	r9,	r10	
    461c:	f5 2b       	jnc	$-20     	;abs 0x4608
      SetLeds(WHITE, 1);
      SetLeds(WHITE, 0);
    }
      SetLeds(BROWN, 1);
    461e:	5e 43       	mov.b	#1,	r14	;r3 As==01
    4620:	6f 43       	mov.b	#2,	r15	;r3 As==10
    4622:	b0 12 96 41 	call	#0x4196	
      SetLeds(BROWN, 0);
    4626:	4e 43       	clr.b	r14		
    4628:	6f 43       	mov.b	#2,	r15	;r3 As==10
    462a:	b0 12 96 41 	call	#0x4196	
    462e:	14 53       	inc	r4		
        }
      }
    }
  }

  for(i = 0; i < NUMTASKS; i++){
    4630:	04 97       	cmp	r7,	r4	
    4632:	dd 23       	jnz	$-68     	;abs 0x45ee
    }
      SetLeds(BROWN, 1);
      SetLeds(BROWN, 0);
  }

  for(BusyPrio = 0; BusyPrio < oldBP; BusyPrio++) {
    4634:	c2 43 10 11 	mov.b	#0,	&0x1110	;r3 As==00
    4638:	27 3c       	jmp	$+80     	;abs 0x4688
    Taskp t = &Tasks[new_prio[BusyPrio]];
    463a:	5f 42 10 11 	mov.b	&0x1110,r15	
    463e:	7f f3       	and.b	#-1,	r15	;r3 As==11
    4640:	0f 51       	add	r1,	r15	
    4642:	6e 4f       	mov.b	@r15,	r14	
    4644:	0e 5e       	rla	r14		
    4646:	0e 5e       	rla	r14		
    4648:	0e 5e       	rla	r14		
    464a:	0e 5e       	rla	r14		
    464c:	6f 4f       	mov.b	@r15,	r15	
    464e:	0f 5f       	rla	r15		
    4650:	0e 5f       	add	r15,	r14	
    4652:	0a 4b       	mov	r11,	r10	
    4654:	0a 5e       	add	r14,	r10	
    t->BusyFlag = 1;
    4656:	da 43 10 00 	mov.b	#1,	16(r10)	;r3 As==01, 0x0010(r10)
    while ((t->Activated != t->Invoked) && (t->Flags & TRIGGERED))
    465a:	09 3c       	jmp	$+20     	;abs 0x466e
    { 
      _EINT(); 
    465c:	32 d2       	eint			
#include "Scheduler.h"
#include "Led.h"

static void ExecuteTask (Taskp t)
{
  t->Invoked++;
    465e:	5f 53       	inc.b	r15		
    4660:	ca 4f 07 00 	mov.b	r15,	7(r10)	;0x0007(r10)
  t->Taskf(t->ExecutionTime); // execute task
    4664:	1f 4a 0a 00 	mov	10(r10),r15	;0x000a(r10)
    4668:	9a 12 0c 00 	call	12(r10)	;0x000c(r10)
    t->BusyFlag = 1;
    while ((t->Activated != t->Invoked) && (t->Flags & TRIGGERED))
    { 
      _EINT(); 
      ExecuteTask(t);
      _DINT();
    466c:	32 c2       	dint			
  }

  for(BusyPrio = 0; BusyPrio < oldBP; BusyPrio++) {
    Taskp t = &Tasks[new_prio[BusyPrio]];
    t->BusyFlag = 1;
    while ((t->Activated != t->Invoked) && (t->Flags & TRIGGERED))
    466e:	5f 4a 07 00 	mov.b	7(r10),	r15	;0x0007(r10)
    4672:	ca 9f 06 00 	cmp.b	r15,	6(r10)	;0x0006(r10)
    4676:	04 24       	jz	$+10     	;abs 0x4680
    4678:	ba b0 40 00 	bit	#64,	8(r10)	;#0x0040, 0x0008(r10)
    467c:	08 00 
    467e:	ee 23       	jnz	$-34     	;abs 0x465c
    { 
      _EINT(); 
      ExecuteTask(t);
      _DINT();
    }
    t->BusyFlag = 0;
    4680:	ca 43 10 00 	mov.b	#0,	16(r10)	;r3 As==00, 0x0010(r10)
    }
      SetLeds(BROWN, 1);
      SetLeds(BROWN, 0);
  }

  for(BusyPrio = 0; BusyPrio < oldBP; BusyPrio++) {
    4684:	d2 53 10 11 	inc.b	&0x1110	
    4688:	c2 98 10 11 	cmp.b	r8,	&0x1110	
    468c:	d6 2b       	jnc	$-82     	;abs 0x463a
      _DINT();
    }
    t->BusyFlag = 0;
  }

}
    468e:	31 50 0a 00 	add	#10,	r1	;#0x000a
    4692:	34 41       	pop	r4		
    4694:	37 41       	pop	r7		
    4696:	38 41       	pop	r8		
    4698:	39 41       	pop	r9		
    469a:	3a 41       	pop	r10		
    469c:	3b 41       	pop	r11		
    469e:	30 41       	ret			

000046a0 <StartTracking>:
static uint16_t Totals[TT_MAX];
static uint8_t JobsExecuted;

void StartTracking(uint8_t index)
{
    StartTimes[index] = TAR;
    46a0:	7f f3       	and.b	#-1,	r15	;r3 As==11
    46a2:	0f 5f       	rla	r15		
    46a4:	9f 42 70 01 	mov	&0x0170,4358(r15);0x1106(r15)
    46a8:	06 11 
}
    46aa:	30 41       	ret			

000046ac <StopTracking>:

void StopTracking(uint8_t index)
{
    Totals[index] += TAR - StartTimes[index];
    46ac:	7f f3       	and.b	#-1,	r15	;r3 As==11
    46ae:	0f 5f       	rla	r15		
    46b0:	1e 42 70 01 	mov	&0x0170,r14	
    46b4:	1e 5f 0a 11 	add	4362(r15),r14	;0x110a(r15)
    46b8:	1e 8f 06 11 	sub	4358(r15),r14	;0x1106(r15)
    46bc:	8f 4e 0a 11 	mov	r14,	4362(r15);0x110a(r15)
}
    46c0:	30 41       	ret			

000046c2 <AddJobExecution>:

void AddJobExecution()
{
    JobsExecuted++;
    46c2:	d2 53 0e 11 	inc.b	&0x110e	
}
    46c6:	30 41       	ret			

000046c8 <PrintResults>:

void PrintResults()
{
    P1OUT = Totals[TT_TIMER_INTERRUPT] & 0xFF;
    46c8:	3e 40 0a 11 	mov	#4362,	r14	;#0x110a
    46cc:	2d 4e       	mov	@r14,	r13	
    46ce:	c2 4d 21 00 	mov.b	r13,	&0x0021	
    P2OUT = Totals[TT_TIMER_INTERRUPT] >> 8;
    46d2:	3f 4e       	mov	@r14+,	r15	
    46d4:	0f 4d       	mov	r13,	r15	
    46d6:	8f 10       	swpb	r15		
    46d8:	7f f3       	and.b	#-1,	r15	;r3 As==11
    46da:	c2 4f 29 00 	mov.b	r15,	&0x0029	

    P3OUT = Totals[TT_SCHEDULER] & 0xFF;
    46de:	2f 4e       	mov	@r14,	r15	
    46e0:	c2 4f 19 00 	mov.b	r15,	&0x0019	
    P4OUT = Totals[TT_SCHEDULER] >> 8;
    46e4:	8f 10       	swpb	r15		
    46e6:	7f f3       	and.b	#-1,	r15	;r3 As==11
    46e8:	c2 4f 1d 00 	mov.b	r15,	&0x001d	

    P6OUT = JobsExecuted;
    46ec:	d2 42 0e 11 	mov.b	&0x110e,&0x0035	
    46f0:	35 00 
    46f2:	30 41       	ret			

000046f4 <__udivmodhi4>:
    46f4:	0e ee       	xor	r14,	r14	
    46f6:	3b 40 11 00 	mov	#17,	r11	;#0x0011
    46fa:	05 3c       	jmp	$+12     	;abs 0x4706
    46fc:	0d 10       	rrc	r13		
    46fe:	0e 6e       	rlc	r14		
    4700:	0e 9a       	cmp	r10,	r14	
    4702:	01 28       	jnc	$+4      	;abs 0x4706
    4704:	0e 8a       	sub	r10,	r14	
    4706:	0c 6c       	rlc	r12		
    4708:	0d 6d       	rlc	r13		
    470a:	1b 83       	dec	r11		
    470c:	f7 23       	jnz	$-16     	;abs 0x46fc
    470e:	30 41       	ret			

00004710 <__divmodhi4>:
    4710:	0d 43       	clr	r13		
    4712:	3c b0 00 80 	bit	#-32768,r12	;#0x8000
    4716:	03 28       	jnc	$+8      	;abs 0x471e
    4718:	3c e3       	inv	r12		
    471a:	1c 53       	inc	r12		
    471c:	2d d2       	bis	#4,	r13	;r2 As==10
    471e:	3a b0 00 80 	bit	#-32768,r10	;#0x8000
    4722:	03 28       	jnc	$+8      	;abs 0x472a
    4724:	3a e3       	inv	r10		
    4726:	1a 53       	inc	r10		
    4728:	3d d2       	bis	#8,	r13	;r2 As==11
    472a:	b0 12 f4 46 	call	#0x46f4	
    472e:	0d 10       	rrc	r13		
    4730:	2d b2       	bit	#4,	r13	;r2 As==10
    4732:	04 28       	jnc	$+10     	;abs 0x473c
    4734:	3e e3       	inv	r14		
    4736:	1e 53       	inc	r14		
    4738:	3c e3       	inv	r12		
    473a:	1c 53       	inc	r12		
    473c:	3d b2       	bit	#8,	r13	;r2 As==11
    473e:	02 28       	jnc	$+6      	;abs 0x4744
    4740:	3c e3       	inv	r12		
    4742:	1c 53       	inc	r12		
    4744:	30 41       	ret			

Disassembly of section .vectors:

0000ffe0 <InterruptVectors>:
    ffe0:	30 40 30 40 30 40 30 40 30 40 30 40 46 43 30 40     0@0@0@0@0@0@FC0@
    fff0:	30 40 30 40 30 40 30 40 30 40 30 40 30 40 00 40     0@0@0@0@0@0@0@.@
